target datalayout = "e-m:e-p270:32:32-p271:32:32-p272:64:64-i64:64-i128:128-f80:128-n8:16:32:64-S128"
target triple = "x86_64-pc-linux-gnu"

%struct.expert_field = type { i32, i32 }

@ei_gsm_a_bssmap_extraneous_data = internal global %struct.expert_field zeroinitializer, align 4
@hf_gsm_a_bssmap_spare_bits = internal global i32 0, align 4
@.str.127 = private unnamed_addr constant [3 x i8] c"%s\00", align 1
@cell_discriminator = internal global i8 15, align 1
@hf_gsm_a_bssmap_be_cell_id_disc = internal global i32 0, align 4
@ett_cell_list = internal global i32 0, align 4
@.str.135 = private unnamed_addr constant [8 x i8] c"Cell %u\00", align 1
@.str.136 = private unnamed_addr constant [13 x i8] c" - %u cell%s\00", align 1
@.str.137 = private unnamed_addr constant [1 x i8] zeroinitializer, align 1
@.str.138 = private unnamed_addr constant [2 x i8] c"s\00", align 1

; Function Attrs: null_pointer_is_valid sspstrong uwtable
define hidden zeroext i16 @be_cell_id_aux(ptr noundef %0, ptr noundef %1, ptr noundef %2, i32 noundef %3, i32 noundef %4, ptr noundef %5, i32 noundef %6, i8 noundef zeroext %7) #1 {
  %9 = alloca ptr, align 8
  %10 = alloca ptr, align 8
  %11 = alloca ptr, align 8
  %12 = alloca i32, align 4
  %13 = alloca i32, align 4
  %14 = alloca ptr, align 8
  %15 = alloca i32, align 4
  %16 = alloca i8, align 1
  store ptr %0, ptr %9, align 8
  store ptr %1, ptr %10, align 8
  store ptr %2, ptr %11, align 8
  store i32 %3, ptr %12, align 4
  store i32 %4, ptr %13, align 4
  store ptr %5, ptr %14, align 8
  store i32 %6, ptr %15, align 4
  store i8 %7, ptr %16, align 1
  %17 = load ptr, ptr %9, align 8
  %18 = load ptr, ptr %10, align 8
  %19 = load ptr, ptr %11, align 8
  %20 = load i32, ptr %12, align 4
  %21 = load i32, ptr %13, align 4
  %22 = load ptr, ptr %14, align 8
  %23 = load i32, ptr %15, align 4
  %24 = load i8, ptr %16, align 1
  %25 = call zeroext i16 @be_cell_id_type(ptr noundef %17, ptr noundef %18, ptr noundef %19, i32 noundef %20, i32 noundef %21, ptr noundef %22, i32 noundef %23, i8 noundef zeroext %24, i32 noundef 0)
  ret i16 %25
}

; Function Attrs: null_pointer_is_valid sspstrong uwtable
define hidden zeroext i16 @be_cell_id_list(ptr noundef %0, ptr noundef %1, ptr noundef %2, i32 noundef %3, i32 noundef %4, ptr noundef %5, i32 noundef %6) #1 {
  %8 = alloca i16, align 2
  %9 = alloca ptr, align 8
  %10 = alloca ptr, align 8
  %11 = alloca ptr, align 8
  %12 = alloca i32, align 4
  %13 = alloca i32, align 4
  %14 = alloca ptr, align 8
  %15 = alloca i32, align 4
  %16 = alloca i8, align 1
  %17 = alloca i16, align 2
  %18 = alloca i8, align 1
  %19 = alloca i8, align 1
  %20 = alloca i32, align 4
  %21 = alloca ptr, align 8
  %22 = alloca ptr, align 8
  %23 = alloca i32, align 4
  store ptr %0, ptr %9, align 8
  store ptr %1, ptr %10, align 8
  store ptr %2, ptr %11, align 8
  store i32 %3, ptr %12, align 4
  store i32 %4, ptr %13, align 4
  store ptr %5, ptr %14, align 8
  store i32 %6, ptr %15, align 4
  call void @llvm.lifetime.start.p0(i64 1, ptr %16) #5
  call void @llvm.lifetime.start.p0(i64 2, ptr %17) #5
  call void @llvm.lifetime.start.p0(i64 1, ptr %18) #5
  call void @llvm.lifetime.start.p0(i64 1, ptr %19) #5
  call void @llvm.lifetime.start.p0(i64 4, ptr %20) #5
  call void @llvm.lifetime.start.p0(i64 8, ptr %21) #5
  store ptr null, ptr %21, align 8
  call void @llvm.lifetime.start.p0(i64 8, ptr %22) #5
  store ptr null, ptr %22, align 8
  %24 = load i32, ptr %12, align 4
  store i32 %24, ptr %20, align 4
  %25 = load ptr, ptr %9, align 8
  %26 = load i32, ptr %20, align 4
  %27 = call zeroext i8 @tvb_get_uint8(ptr noundef %25, i32 noundef %26)
  store i8 %27, ptr %16, align 1
  %28 = load ptr, ptr %10, align 8
  %29 = load i32, ptr @hf_gsm_a_bssmap_spare_bits, align 4
  %30 = load ptr, ptr %9, align 8
  %31 = load i32, ptr %20, align 4
  %32 = shl i32 %31, 3
  %33 = call ptr @proto_tree_add_bits_item(ptr noundef %28, i32 noundef %29, ptr noundef %30, i32 noundef %32, i32 noundef 4, i32 noundef 0)
  %34 = load i8, ptr %16, align 1
  %35 = zext i8 %34 to i32
  %36 = and i32 %35, 15
  %37 = trunc i32 %36 to i8
  store i8 %37, ptr %18, align 1
  %38 = load i8, ptr %18, align 1
  store i8 %38, ptr @cell_discriminator, align 1
  %39 = load ptr, ptr %10, align 8
  %40 = load i32, ptr @hf_gsm_a_bssmap_be_cell_id_disc, align 4
  %41 = load ptr, ptr %9, align 8
  %42 = load i32, ptr %20, align 4
  %43 = call ptr @proto_tree_add_item(ptr noundef %39, i32 noundef %40, ptr noundef %41, i32 noundef %42, i32 noundef 1, i32 noundef 0)
  %44 = load i32, ptr %20, align 4
  %45 = add i32 %44, 1
  store i32 %45, ptr %20, align 4
  %46 = load i32, ptr %13, align 4
  %47 = load i32, ptr %20, align 4
  %48 = load i32, ptr %12, align 4
  %49 = sub i32 %47, %48
  %50 = icmp ule i32 %46, %49
  br i1 %50, label %51, label %54

51:                                               ; preds = %7
  %52 = load i32, ptr %13, align 4
  %53 = trunc i32 %52 to i16
  store i16 %53, ptr %8, align 2
  store i32 1, ptr %23, align 4
  br label %162

54:                                               ; preds = %7
  store i8 0, ptr %19, align 1
  br label %55

55:                                               ; preds = %115, %54
  %56 = load ptr, ptr %10, align 8
  %57 = load ptr, ptr %9, align 8
  %58 = load i32, ptr %20, align 4
  %59 = load i32, ptr @ett_cell_list, align 4
  %60 = load i8, ptr %19, align 1
  %61 = zext i8 %60 to i32
  %62 = add i32 %61, 1
  %63 = call ptr (ptr, ptr, i32, i32, i32, ptr, ptr, ...) @proto_tree_add_subtree_format(ptr noundef %56, ptr noundef %57, i32 noundef %58, i32 noundef -1, i32 noundef %59, ptr noundef %21, ptr noundef @.str.135, i32 noundef %62)
  store ptr %63, ptr %22, align 8
  %64 = load ptr, ptr %14, align 8
  %65 = icmp ne ptr %64, null
  br i1 %65, label %66, label %69

66:                                               ; preds = %55
  %67 = load ptr, ptr %14, align 8
  %68 = getelementptr i8, ptr %67, i64 0
  store i8 0, ptr %68, align 1
  br label %69

69:                                               ; preds = %66, %55
  %70 = load ptr, ptr %9, align 8
  %71 = load ptr, ptr %22, align 8
  %72 = load ptr, ptr %11, align 8
  %73 = load i32, ptr %20, align 4
  %74 = load i32, ptr %13, align 4
  %75 = load i32, ptr %20, align 4
  %76 = load i32, ptr %12, align 4
  %77 = sub i32 %75, %76
  %78 = sub i32 %74, %77
  %79 = load ptr, ptr %14, align 8
  %80 = load i32, ptr %15, align 4
  %81 = load i8, ptr %18, align 1
  %82 = call zeroext i16 @be_cell_id_aux(ptr noundef %70, ptr noundef %71, ptr noundef %72, i32 noundef %73, i32 noundef %78, ptr noundef %79, i32 noundef %80, i8 noundef zeroext %81)
  store i16 %82, ptr %17, align 2
  %83 = load ptr, ptr %14, align 8
  %84 = icmp ne ptr %83, null
  br i1 %84, label %85, label %94

85:                                               ; preds = %69
  %86 = load ptr, ptr %14, align 8
  %87 = getelementptr i8, ptr %86, i64 0
  %88 = load i8, ptr %87, align 1
  %89 = sext i8 %88 to i32
  %90 = icmp ne i32 %89, 0
  br i1 %90, label %91, label %94

91:                                               ; preds = %85
  %92 = load ptr, ptr %21, align 8
  %93 = load ptr, ptr %14, align 8
  call void (ptr, ptr, ...) @proto_item_append_text(ptr noundef %92, ptr noundef @.str.127, ptr noundef %93)
  br label %94

94:                                               ; preds = %91, %85, %69
  %95 = load ptr, ptr %21, align 8
  %96 = load i16, ptr %17, align 2
  %97 = zext i16 %96 to i32
  call void @proto_item_set_len(ptr noundef %95, i32 noundef %97)
  %98 = load i16, ptr %17, align 2
  %99 = zext i16 %98 to i32
  %100 = load i32, ptr %20, align 4
  %101 = add i32 %100, %99
  store i32 %101, ptr %20, align 4
  %102 = load i8, ptr %19, align 1
  %103 = add i8 %102, 1
  store i8 %103, ptr %19, align 1
  br label %104

104:                                              ; preds = %94
  %105 = load i32, ptr %13, align 4
  %106 = load i32, ptr %20, align 4
  %107 = load i32, ptr %12, align 4
  %108 = sub i32 %106, %107
  %109 = sub i32 %105, %108
  %110 = icmp ugt i32 %109, 0
  br i1 %110, label %111, label %115

111:                                              ; preds = %104
  %112 = load i16, ptr %17, align 2
  %113 = zext i16 %112 to i32
  %114 = icmp sgt i32 %113, 0
  br label %115

115:                                              ; preds = %111, %104
  %116 = phi i1 [ false, %104 ], [ %114, %111 ]
  br i1 %116, label %55, label %117, !llvm.loop !8

117:                                              ; preds = %115
  %118 = load ptr, ptr %14, align 8
  %119 = icmp ne ptr %118, null
  br i1 %119, label %120, label %133

120:                                              ; preds = %117
  %121 = load ptr, ptr %14, align 8
  %122 = load i32, ptr %15, align 4
  %123 = sext i32 %122 to i64
  %124 = load ptr, ptr %14, align 8
  %125 = call i64 @llvm.objectsize.i64.p0(ptr %124, i1 false, i1 true, i1 true)
  %126 = load i8, ptr %19, align 1
  %127 = zext i8 %126 to i32
  %128 = load i8, ptr %19, align 1
  %129 = zext i8 %128 to i32
  %130 = icmp eq i32 %129, 1
  %131 = select i1 %130, ptr @.str.137, ptr @.str.138
  %132 = call i32 (ptr, i64, i32, i64, ptr, ...) @__snprintf_chk(ptr noundef %121, i64 noundef %123, i32 noundef 2, i64 noundef %125, ptr noundef @.str.136, i32 noundef %127, ptr noundef %131)
  br label %133

133:                                              ; preds = %120, %117
  %134 = load i32, ptr %13, align 4
  %135 = load i32, ptr %20, align 4
  %136 = load i32, ptr %12, align 4
  %137 = sub i32 %135, %136
  %138 = icmp ugt i32 %134, %137
  br i1 %138, label %139, label %157

139:                                              ; preds = %133
  %140 = load ptr, ptr %10, align 8
  %141 = load ptr, ptr %11, align 8
  %142 = load ptr, ptr %9, align 8
  %143 = load i32, ptr %20, align 4
  %144 = load i32, ptr %13, align 4
  %145 = load i32, ptr %20, align 4
  %146 = load i32, ptr %12, align 4
  %147 = sub i32 %145, %146
  %148 = sub i32 %144, %147
  %149 = call ptr @proto_tree_add_expert(ptr noundef %140, ptr noundef %141, ptr noundef @ei_gsm_a_bssmap_extraneous_data, ptr noundef %142, i32 noundef %143, i32 noundef %148)
  %150 = load i32, ptr %13, align 4
  %151 = load i32, ptr %20, align 4
  %152 = load i32, ptr %12, align 4
  %153 = sub i32 %151, %152
  %154 = sub i32 %150, %153
  %155 = load i32, ptr %20, align 4
  %156 = add i32 %155, %154
  store i32 %156, ptr %20, align 4
  br label %157

157:                                              ; preds = %139, %133
  %158 = load i32, ptr %20, align 4
  %159 = load i32, ptr %12, align 4
  %160 = sub i32 %158, %159
  %161 = trunc i32 %160 to i16
  store i16 %161, ptr %8, align 2
  store i32 1, ptr %23, align 4
  br label %162

162:                                              ; preds = %157, %51
  call void @llvm.lifetime.end.p0(i64 8, ptr %22) #5
  call void @llvm.lifetime.end.p0(i64 8, ptr %21) #5
  call void @llvm.lifetime.end.p0(i64 4, ptr %20) #5
  call void @llvm.lifetime.end.p0(i64 1, ptr %19) #5
  call void @llvm.lifetime.end.p0(i64 1, ptr %18) #5
  call void @llvm.lifetime.end.p0(i64 2, ptr %17) #5
  call void @llvm.lifetime.end.p0(i64 1, ptr %16) #5
  %163 = load i16, ptr %8, align 2
  ret i16 %163
}