; Function Attrs: null_pointer_is_valid sspstrong uwtable
define hidden zeroext i16 @be_cell_id_list(ptr noundef %0, ptr noundef %1, ptr noundef %2, i32 noundef %3, i32 noundef %4, ptr noundef %5, i32 noundef %6) #1 {
  %8 = alloca ptr, align 8
  call void @llvm.lifetime.start.p0(i64 8, ptr nonnull %8) #4
  store ptr null, ptr %8, align 8
  %9 = tail call zeroext i8 @tvb_get_uint8(ptr noundef %0, i32 noundef %3)
  %10 = load i32, ptr @hf_gsm_a_bssmap_spare_bits, align 4
  %11 = shl i32 %3, 3
  %12 = tail call ptr @proto_tree_add_bits_item(ptr noundef %1, i32 noundef %10, ptr noundef %0, i32 noundef %11, i32 noundef 4, i32 noundef 0)
  %13 = and i8 %9, 15
  store i8 %13, ptr @cell_discriminator, align 1
  %14 = load i32, ptr @hf_gsm_a_bssmap_be_cell_id_disc, align 4
  %15 = tail call ptr @proto_tree_add_item(ptr noundef %1, i32 noundef %14, ptr noundef %0, i32 noundef %3, i32 noundef 1, i32 noundef 0)
  %16 = icmp ult i32 %4, 2
  br i1 %16, label %65, label %17

17:                                               ; preds = %7
  %18 = add i32 %3, 1
  %.not = icmp eq ptr %5, null
  %.neg73 = add i32 %4, %3
  br i1 %.not, label %.thread.us, label %.split

.thread.us:                                       ; preds = %17, %.thread.us
  %.065.us = phi i8 [ %28, %.thread.us ], [ 0, %17 ]
  %.0.us = phi i32 [ %27, %.thread.us ], [ %18, %17 ]
  %19 = load i32, ptr @ett_cell_list, align 4
  %20 = zext i8 %.065.us to i32
  %21 = add nuw nsw i32 %20, 1
  %22 = call ptr (ptr, ptr, i32, i32, i32, ptr, ptr, ...) @proto_tree_add_subtree_format(ptr noundef %1, ptr noundef %0, i32 noundef %.0.us, i32 noundef -1, i32 noundef %19, ptr noundef nonnull %8, ptr noundef nonnull @.str.135, i32 noundef %21)
  %23 = sub i32 %.neg73, %.0.us
  %24 = call noundef zeroext i16 @be_cell_id_type(ptr noundef %0, ptr noundef %22, ptr noundef %2, i32 noundef %.0.us, i32 noundef %23, ptr noundef null, i32 noundef %6, i8 noundef zeroext %13, i32 noundef 0)
  %25 = load ptr, ptr %8, align 8
  %26 = zext i16 %24 to i32
  call void @proto_item_set_len(ptr noundef %25, i32 noundef %26)
  %27 = add i32 %.0.us, %26
  %28 = add i8 %.065.us, 1
  %29 = sub i32 %27, %3
  %30 = icmp ne i32 %4, %29
  %31 = icmp ne i16 %24, 0
  %32 = and i1 %31, %30
  br i1 %32, label %.thread.us, label %.split82.us, !llvm.loop !8

.split:                                           ; preds = %17, %42
  %.065 = phi i8 [ %46, %42 ], [ 0, %17 ]
  %.0 = phi i32 [ %45, %42 ], [ %18, %17 ]
  %33 = load i32, ptr @ett_cell_list, align 4
  %34 = zext i8 %.065 to i32
  %35 = add nuw nsw i32 %34, 1
  %36 = call ptr (ptr, ptr, i32, i32, i32, ptr, ptr, ...) @proto_tree_add_subtree_format(ptr noundef %1, ptr noundef %0, i32 noundef %.0, i32 noundef -1, i32 noundef %33, ptr noundef nonnull %8, ptr noundef nonnull @.str.135, i32 noundef %35)
  store i8 0, ptr %5, align 1
  %37 = sub i32 %.neg73, %.0
  %38 = call noundef zeroext i16 @be_cell_id_type(ptr noundef %0, ptr noundef %36, ptr noundef %2, i32 noundef %.0, i32 noundef %37, ptr noundef nonnull %5, i32 noundef %6, i8 noundef zeroext %13, i32 noundef 0)
  %39 = load i8, ptr %5, align 1
  %.not74 = icmp eq i8 %39, 0
  br i1 %.not74, label %42, label %40

40:                                               ; preds = %.split
  %41 = load ptr, ptr %8, align 8
  call void (ptr, ptr, ...) @proto_item_append_text(ptr noundef %41, ptr noundef nonnull @.str.127, ptr noundef nonnull %5)
  br label %42

42:                                               ; preds = %40, %.split
  %43 = load ptr, ptr %8, align 8
  %44 = zext i16 %38 to i32
  call void @proto_item_set_len(ptr noundef %43, i32 noundef %44)
  %45 = add i32 %.0, %44
  %46 = add i8 %.065, 1
  %47 = sub i32 %45, %3
  %48 = icmp ne i32 %4, %47
  %49 = icmp ne i16 %38, 0
  %50 = and i1 %49, %48
  br i1 %50, label %.split, label %.split82.us, !llvm.loop !8

.split82.us:                                      ; preds = %42, %.thread.us
  %.us-phi = phi i32 [ %29, %.thread.us ], [ %47, %42 ]
  %.us-phi83 = phi i32 [ %27, %.thread.us ], [ %45, %42 ]
  %.us-phi84 = phi i8 [ %28, %.thread.us ], [ %46, %42 ]
  %.us-phi86 = phi i8 [ %.065.us, %.thread.us ], [ %.065, %42 ]
  %51 = sub i32 %4, %.us-phi
  br i1 %.not, label %58, label %52

52:                                               ; preds = %.split82.us
  %53 = sext i32 %6 to i64
  %54 = zext i8 %.us-phi84 to i32
  %55 = icmp eq i8 %.us-phi86, 0
  %56 = select i1 %55, ptr @.str.137, ptr @.str.138
  %57 = call i32 (ptr, i64, i32, i64, ptr, ...) @__snprintf_chk(ptr noundef nonnull %5, i64 noundef %53, i32 noundef 2, i64 noundef -1, ptr noundef nonnull @.str.136, i32 noundef %54, ptr noundef nonnull %56)
  br label %58

58:                                               ; preds = %52, %.split82.us
  %59 = icmp ugt i32 %4, %.us-phi
  br i1 %59, label %60, label %63

60:                                               ; preds = %58
  %61 = call ptr @proto_tree_add_expert(ptr noundef %1, ptr noundef %2, ptr noundef nonnull @ei_gsm_a_bssmap_extraneous_data, ptr noundef %0, i32 noundef %.us-phi83, i32 noundef %51)
  %62 = add i32 %51, %.us-phi83
  br label %63

63:                                               ; preds = %60, %58
  %.1 = phi i32 [ %62, %60 ], [ %.us-phi83, %58 ]
  %64 = sub i32 %.1, %3
  br label %65

65:                                               ; preds = %7, %63
  %.066.in = phi i32 [ %64, %63 ], [ %4, %7 ]
  %.066 = trunc i32 %.066.in to i16
  call void @llvm.lifetime.end.p0(i64 8, ptr nonnull %8) #4
  ret i16 %.066
}